target datalayout = "e-m:e-p270:32:32-p271:32:32-p272:64:64-i64:64-i128:128-f80:128-n8:16:32:64-S128"
target triple = "x86_64-pc-linux-gnu"

%struct.sharedObjectsStruct = type { ptr, ptr, ptr, ptr, ptr, ptr, ptr, ptr, [4 x ptr], [4 x ptr], [4 x ptr], [4 x ptr], ptr, ptr, ptr, ptr, ptr, ptr, ptr, ptr, ptr, ptr, ptr, ptr, ptr, ptr, ptr, ptr, ptr, ptr, ptr, ptr, ptr, ptr, ptr, ptr, ptr, ptr, ptr, ptr, ptr, ptr, ptr, ptr, ptr, ptr, ptr, ptr, ptr, ptr, ptr, ptr, ptr, ptr, ptr, ptr, ptr, ptr, ptr, ptr, ptr, ptr, ptr, ptr, ptr, ptr, ptr, ptr, ptr, ptr, ptr, ptr, ptr, ptr, ptr, ptr, ptr, ptr, ptr, ptr, ptr, ptr, ptr, ptr, ptr, ptr, ptr, ptr, [10 x ptr], [10000 x ptr], [32 x ptr], [32 x ptr], [32 x ptr], [32 x ptr], ptr, ptr }
%struct.redisObject = type { i32, i32, ptr }
%struct.client = type { i64, i64, ptr, i8, i8, i8, i8, i32, ptr, ptr, ptr, ptr, ptr, i64, i64, i32, ptr, i32, i32, ptr, i64, ptr, ptr, ptr, ptr, ptr, i32, i32, i64, ptr, i64, ptr, i64, i64, i64, i32, ptr, i64, i64, i32, i32, i32, i32, i64, i64, ptr, i64, i64, i64, i64, i64, i64, i64, i64, [41 x i8], i32, ptr, i32, i32, i64, %struct.multiState, %struct.blockingState, i64, ptr, ptr, ptr, ptr, ptr, ptr, ptr, ptr, ptr, ptr, ptr, ptr, ptr, ptr, i64, ptr, i64, i32, ptr, ptr, ptr, i64, %struct.listNode, i64, i64, i32, i64, ptr }
%struct.multiState = type { ptr, i32, i32, i32, i64, i32 }
%struct.blockingState = type { i32, i64, i32, ptr, i32, i32, i64, ptr, ptr, i64 }
%struct.listNode = type { ptr, ptr, ptr }

@shared = external global %struct.sharedObjectsStruct, align 8
@.str.74 = private unnamed_addr constant [33 x i8] c"numkeys should be greater than 0\00", align 1
@.str.75 = private unnamed_addr constant [4 x i8] c"MIN\00", align 1
@.str.76 = private unnamed_addr constant [4 x i8] c"MAX\00", align 1
@.str.77 = private unnamed_addr constant [6 x i8] c"COUNT\00", align 1
@.str.78 = private unnamed_addr constant [31 x i8] c"count should be greater than 0\00", align 1

; Function Attrs: nounwind uwtable
define dso_local void @zmpopGenericCommand(ptr noundef %0, i32 noundef %1, i32 noundef %2) #0 {
  %4 = alloca ptr, align 8
  %5 = alloca i32, align 4
  %6 = alloca i32, align 4
  %7 = alloca i64, align 8
  %8 = alloca i64, align 8
  %9 = alloca i32, align 4
  %10 = alloca i64, align 8
  %11 = alloca i32, align 4
  %12 = alloca i64, align 8
  %13 = alloca ptr, align 8
  %14 = alloca i32, align 4
  store ptr %0, ptr %4, align 8, !tbaa !150
  store i32 %1, ptr %5, align 4, !tbaa !5
  store i32 %2, ptr %6, align 4, !tbaa !5
  call void @llvm.lifetime.start.p0(i64 8, ptr %7) #12
  call void @llvm.lifetime.start.p0(i64 8, ptr %8) #12
  store i64 0, ptr %8, align 8, !tbaa !31
  call void @llvm.lifetime.start.p0(i64 4, ptr %9) #12
  store i32 0, ptr %9, align 4, !tbaa !5
  call void @llvm.lifetime.start.p0(i64 8, ptr %10) #12
  store i64 -1, ptr %10, align 8, !tbaa !31
  %15 = load ptr, ptr %4, align 8, !tbaa !150
  %16 = load ptr, ptr %4, align 8, !tbaa !150
  %17 = getelementptr inbounds nuw %struct.client, ptr %16, i32 0, i32 16
  %18 = load ptr, ptr %17, align 8, !tbaa !151
  %19 = load i32, ptr %5, align 4, !tbaa !5
  %20 = sext i32 %19 to i64
  %21 = getelementptr inbounds ptr, ptr %18, i64 %20
  %22 = load ptr, ptr %21, align 8, !tbaa !78
  %23 = call i32 @getRangeLongFromObjectOrReply(ptr noundef %15, ptr noundef %22, i64 noundef 1, i64 noundef 9223372036854775807, ptr noundef %8, ptr noundef @.str.74)
  %24 = icmp ne i32 %23, 0
  br i1 %24, label %25, label %26

25:                                               ; preds = %3
  store i32 1, ptr %11, align 4
  br label %164

26:                                               ; preds = %3
  call void @llvm.lifetime.start.p0(i64 8, ptr %12) #12
  %27 = load i32, ptr %5, align 4, !tbaa !5
  %28 = sext i32 %27 to i64
  %29 = load i64, ptr %8, align 8, !tbaa !31
  %30 = add nsw i64 %28, %29
  %31 = add nsw i64 %30, 1
  store i64 %31, ptr %12, align 8, !tbaa !31
  %32 = load i64, ptr %12, align 8, !tbaa !31
  %33 = load ptr, ptr %4, align 8, !tbaa !150
  %34 = getelementptr inbounds nuw %struct.client, ptr %33, i32 0, i32 15
  %35 = load i32, ptr %34, align 8, !tbaa !160
  %36 = sext i32 %35 to i64
  %37 = icmp sge i64 %32, %36
  br i1 %37, label %38, label %41

38:                                               ; preds = %26
  %39 = load ptr, ptr %4, align 8, !tbaa !150
  %40 = load ptr, ptr getelementptr inbounds nuw (%struct.sharedObjectsStruct, ptr @shared, i32 0, i32 15), align 8, !tbaa !162
  call void @addReplyErrorObject(ptr noundef %39, ptr noundef %40)
  store i32 1, ptr %11, align 4
  br label %163

41:                                               ; preds = %26
  %42 = load ptr, ptr %4, align 8, !tbaa !150
  %43 = getelementptr inbounds nuw %struct.client, ptr %42, i32 0, i32 16
  %44 = load ptr, ptr %43, align 8, !tbaa !151
  %45 = load i64, ptr %12, align 8, !tbaa !31
  %46 = getelementptr inbounds ptr, ptr %44, i64 %45
  %47 = load ptr, ptr %46, align 8, !tbaa !78
  %48 = getelementptr inbounds nuw %struct.redisObject, ptr %47, i32 0, i32 2
  %49 = load ptr, ptr %48, align 8, !tbaa !84
  %50 = call i32 @strcasecmp(ptr noundef %49, ptr noundef @.str.75) #15
  %51 = icmp ne i32 %50, 0
  br i1 %51, label %53, label %52

52:                                               ; preds = %41
  store i32 0, ptr %9, align 4, !tbaa !5
  br label %69

53:                                               ; preds = %41
  %54 = load ptr, ptr %4, align 8, !tbaa !150
  %55 = getelementptr inbounds nuw %struct.client, ptr %54, i32 0, i32 16
  %56 = load ptr, ptr %55, align 8, !tbaa !151
  %57 = load i64, ptr %12, align 8, !tbaa !31
  %58 = getelementptr inbounds ptr, ptr %56, i64 %57
  %59 = load ptr, ptr %58, align 8, !tbaa !78
  %60 = getelementptr inbounds nuw %struct.redisObject, ptr %59, i32 0, i32 2
  %61 = load ptr, ptr %60, align 8, !tbaa !84
  %62 = call i32 @strcasecmp(ptr noundef %61, ptr noundef @.str.76) #15
  %63 = icmp ne i32 %62, 0
  br i1 %63, label %65, label %64

64:                                               ; preds = %53
  store i32 1, ptr %9, align 4, !tbaa !5
  br label %68

65:                                               ; preds = %53
  %66 = load ptr, ptr %4, align 8, !tbaa !150
  %67 = load ptr, ptr getelementptr inbounds nuw (%struct.sharedObjectsStruct, ptr @shared, i32 0, i32 15), align 8, !tbaa !162
  call void @addReplyErrorObject(ptr noundef %66, ptr noundef %67)
  store i32 1, ptr %11, align 4
  br label %163

68:                                               ; preds = %64
  br label %69

69:                                               ; preds = %68, %52
  %70 = load i64, ptr %12, align 8, !tbaa !31
  %71 = add nsw i64 %70, 1
  store i64 %71, ptr %7, align 8, !tbaa !31
  br label %72

72:                                               ; preds = %126, %69
  %73 = load i64, ptr %7, align 8, !tbaa !31
  %74 = load ptr, ptr %4, align 8, !tbaa !150
  %75 = getelementptr inbounds nuw %struct.client, ptr %74, i32 0, i32 15
  %76 = load i32, ptr %75, align 8, !tbaa !160
  %77 = sext i32 %76 to i64
  %78 = icmp slt i64 %73, %77
  br i1 %78, label %79, label %129

79:                                               ; preds = %72
  call void @llvm.lifetime.start.p0(i64 8, ptr %13) #12
  %80 = load ptr, ptr %4, align 8, !tbaa !150
  %81 = getelementptr inbounds nuw %struct.client, ptr %80, i32 0, i32 16
  %82 = load ptr, ptr %81, align 8, !tbaa !151
  %83 = load i64, ptr %7, align 8, !tbaa !31
  %84 = getelementptr inbounds ptr, ptr %82, i64 %83
  %85 = load ptr, ptr %84, align 8, !tbaa !78
  %86 = getelementptr inbounds nuw %struct.redisObject, ptr %85, i32 0, i32 2
  %87 = load ptr, ptr %86, align 8, !tbaa !84
  store ptr %87, ptr %13, align 8, !tbaa !11
  call void @llvm.lifetime.start.p0(i64 4, ptr %14) #12
  %88 = load ptr, ptr %4, align 8, !tbaa !150
  %89 = getelementptr inbounds nuw %struct.client, ptr %88, i32 0, i32 15
  %90 = load i32, ptr %89, align 8, !tbaa !160
  %91 = sub nsw i32 %90, 1
  %92 = sext i32 %91 to i64
  %93 = load i64, ptr %7, align 8, !tbaa !31
  %94 = sub nsw i64 %92, %93
  %95 = trunc i64 %94 to i32
  store i32 %95, ptr %14, align 4, !tbaa !5
  %96 = load i64, ptr %10, align 8, !tbaa !31
  %97 = icmp eq i64 %96, -1
  br i1 %97, label %98, label %119

98:                                               ; preds = %79
  %99 = load ptr, ptr %13, align 8, !tbaa !11
  %100 = call i32 @strcasecmp(ptr noundef %99, ptr noundef @.str.77) #15
  %101 = icmp ne i32 %100, 0
  br i1 %101, label %119, label %102

102:                                              ; preds = %98
  %103 = load i32, ptr %14, align 4, !tbaa !5
  %104 = icmp ne i32 %103, 0
  br i1 %104, label %105, label %119

105:                                              ; preds = %102
  %106 = load i64, ptr %7, align 8, !tbaa !31
  %107 = add nsw i64 %106, 1
  store i64 %107, ptr %7, align 8, !tbaa !31
  %108 = load ptr, ptr %4, align 8, !tbaa !150
  %109 = load ptr, ptr %4, align 8, !tbaa !150
  %110 = getelementptr inbounds nuw %struct.client, ptr %109, i32 0, i32 16
  %111 = load ptr, ptr %110, align 8, !tbaa !151
  %112 = load i64, ptr %7, align 8, !tbaa !31
  %113 = getelementptr inbounds ptr, ptr %111, i64 %112
  %114 = load ptr, ptr %113, align 8, !tbaa !78
  %115 = call i32 @getRangeLongFromObjectOrReply(ptr noundef %108, ptr noundef %114, i64 noundef 1, i64 noundef 9223372036854775807, ptr noundef %10, ptr noundef @.str.78)
  %116 = icmp ne i32 %115, 0
  br i1 %116, label %117, label %118

117:                                              ; preds = %105
  store i32 1, ptr %11, align 4
  br label %123

118:                                              ; preds = %105
  br label %122

119:                                              ; preds = %102, %98, %79
  %120 = load ptr, ptr %4, align 8, !tbaa !150
  %121 = load ptr, ptr getelementptr inbounds nuw (%struct.sharedObjectsStruct, ptr @shared, i32 0, i32 15), align 8, !tbaa !162
  call void @addReplyErrorObject(ptr noundef %120, ptr noundef %121)
  store i32 1, ptr %11, align 4
  br label %123

122:                                              ; preds = %118
  store i32 0, ptr %11, align 4
  br label %123

123:                                              ; preds = %122, %119, %117
  call void @llvm.lifetime.end.p0(i64 4, ptr %14) #12
  call void @llvm.lifetime.end.p0(i64 8, ptr %13) #12
  %124 = load i32, ptr %11, align 4
  switch i32 %124, label %163 [
    i32 0, label %125
  ]

125:                                              ; preds = %123
  br label %126

126:                                              ; preds = %125
  %127 = load i64, ptr %7, align 8, !tbaa !31
  %128 = add nsw i64 %127, 1
  store i64 %128, ptr %7, align 8, !tbaa !31
  br label %72, !llvm.loop !249

129:                                              ; preds = %72
  %130 = load i64, ptr %10, align 8, !tbaa !31
  %131 = icmp eq i64 %130, -1
  br i1 %131, label %132, label %133

132:                                              ; preds = %129
  store i64 1, ptr %10, align 8, !tbaa !31
  br label %133

133:                                              ; preds = %132, %129
  %134 = load i32, ptr %6, align 4, !tbaa !5
  %135 = icmp ne i32 %134, 0
  br i1 %135, label %136, label %149

136:                                              ; preds = %133
  %137 = load ptr, ptr %4, align 8, !tbaa !150
  %138 = load ptr, ptr %4, align 8, !tbaa !150
  %139 = getelementptr inbounds nuw %struct.client, ptr %138, i32 0, i32 16
  %140 = load ptr, ptr %139, align 8, !tbaa !151
  %141 = load i32, ptr %5, align 4, !tbaa !5
  %142 = sext i32 %141 to i64
  %143 = getelementptr inbounds ptr, ptr %140, i64 %142
  %144 = getelementptr inbounds ptr, ptr %143, i64 1
  %145 = load i64, ptr %8, align 8, !tbaa !31
  %146 = trunc i64 %145 to i32
  %147 = load i32, ptr %9, align 4, !tbaa !5
  %148 = load i64, ptr %10, align 8, !tbaa !31
  call void @blockingGenericZpopCommand(ptr noundef %137, ptr noundef %144, i32 noundef %146, i32 noundef %147, i32 noundef 1, i64 noundef %148, i32 noundef 1, i32 noundef 1)
  br label %162

149:                                              ; preds = %133
  %150 = load ptr, ptr %4, align 8, !tbaa !150
  %151 = load ptr, ptr %4, align 8, !tbaa !150
  %152 = getelementptr inbounds nuw %struct.client, ptr %151, i32 0, i32 16
  %153 = load ptr, ptr %152, align 8, !tbaa !151
  %154 = load i32, ptr %5, align 4, !tbaa !5
  %155 = sext i32 %154 to i64
  %156 = getelementptr inbounds ptr, ptr %153, i64 %155
  %157 = getelementptr inbounds ptr, ptr %156, i64 1
  %158 = load i64, ptr %8, align 8, !tbaa !31
  %159 = trunc i64 %158 to i32
  %160 = load i32, ptr %9, align 4, !tbaa !5
  %161 = load i64, ptr %10, align 8, !tbaa !31
  call void @genericZpopCommand(ptr noundef %150, ptr noundef %157, i32 noundef %159, i32 noundef %160, i32 noundef 1, i64 noundef %161, i32 noundef 1, i32 noundef 1, ptr noundef null)
  br label %162

162:                                              ; preds = %149, %136
  store i32 0, ptr %11, align 4
  br label %163

163:                                              ; preds = %162, %123, %65, %38
  call void @llvm.lifetime.end.p0(i64 8, ptr %12) #12
  br label %164

164:                                              ; preds = %163, %25
  call void @llvm.lifetime.end.p0(i64 8, ptr %10) #12
  call void @llvm.lifetime.end.p0(i64 4, ptr %9) #12
  call void @llvm.lifetime.end.p0(i64 8, ptr %8) #12
  call void @llvm.lifetime.end.p0(i64 8, ptr %7) #12
  %165 = load i32, ptr %11, align 4
  switch i32 %165, label %167 [
    i32 0, label %166
    i32 1, label %166
  ]

166:                                              ; preds = %164, %164
  ret void

167:                                              ; preds = %164
  unreachable
}