; Function Attrs: nounwind uwtable
define dso_local void @zmpopGenericCommand(ptr noundef %0, i32 noundef %1, i32 noundef %2) local_unnamed_addr #0 {
  %4 = alloca i64, align 8
  %5 = alloca i64, align 8
  call void @llvm.lifetime.start.p0(i64 8, ptr nonnull %4) #18
  store i64 0, ptr %4, align 8, !tbaa !26
  call void @llvm.lifetime.start.p0(i64 8, ptr nonnull %5) #18
  store i64 -1, ptr %5, align 8, !tbaa !26
  %6 = getelementptr inbounds nuw i8, ptr %0, i64 96
  %7 = load ptr, ptr %6, align 8, !tbaa !136
  %8 = sext i32 %1 to i64
  %9 = getelementptr inbounds ptr, ptr %7, i64 %8
  %10 = load ptr, ptr %9, align 8, !tbaa !146
  %11 = call i32 @getRangeLongFromObjectOrReply(ptr noundef %0, ptr noundef %10, i64 noundef 1, i64 noundef 9223372036854775807, ptr noundef nonnull %4, ptr noundef nonnull @.str.74) #18
  %.not = icmp eq i32 %11, 0
  br i1 %.not, label %12, label %.loopexit

12:                                               ; preds = %3
  %13 = load i64, ptr %4, align 8, !tbaa !26
  %14 = add nsw i64 %13, %8
  %15 = add nsw i64 %14, 1
  %16 = getelementptr inbounds nuw i8, ptr %0, i64 88
  %17 = load i32, ptr %16, align 8, !tbaa !147
  %18 = sext i32 %17 to i64
  %.not40 = icmp slt i64 %15, %18
  br i1 %.not40, label %21, label %19

19:                                               ; preds = %12
  %20 = load ptr, ptr getelementptr inbounds nuw (i8, ptr @shared, i64 216), align 8, !tbaa !148
  call void @addReplyErrorObject(ptr noundef nonnull %0, ptr noundef %20) #18
  br label %.loopexit

21:                                               ; preds = %12
  %22 = load ptr, ptr %6, align 8, !tbaa !136
  %23 = getelementptr inbounds ptr, ptr %22, i64 %15
  %24 = load ptr, ptr %23, align 8, !tbaa !146
  %25 = getelementptr inbounds nuw i8, ptr %24, i64 8
  %26 = load ptr, ptr %25, align 8, !tbaa !75
  %27 = call i32 @strcasecmp(ptr noundef %26, ptr noundef nonnull @.str.75) #20
  %.not41 = icmp eq i32 %27, 0
  br i1 %.not41, label %32, label %28

28:                                               ; preds = %21
  %29 = call i32 @strcasecmp(ptr noundef %26, ptr noundef nonnull @.str.76) #20
  %.not42 = icmp eq i32 %29, 0
  br i1 %.not42, label %32, label %30

30:                                               ; preds = %28
  %31 = load ptr, ptr getelementptr inbounds nuw (i8, ptr @shared, i64 216), align 8, !tbaa !148
  call void @addReplyErrorObject(ptr noundef nonnull %0, ptr noundef %31) #18
  br label %.loopexit

32:                                               ; preds = %28, %21
  %.037 = phi i32 [ 0, %21 ], [ 1, %28 ]
  br label %33

33:                                               ; preds = %51, %32
  %.0.in = phi i64 [ %14, %32 ], [ %.0, %51 ]
  %.0 = add nsw i64 %.0.in, 2
  %34 = load i32, ptr %16, align 8, !tbaa !147
  %35 = sext i32 %34 to i64
  %36 = icmp slt i64 %.0, %35
  %37 = load i64, ptr %5, align 8, !tbaa !26
  %38 = icmp eq i64 %37, -1
  br i1 %36, label %39, label %55

39:                                               ; preds = %33
  br i1 %38, label %40, label %.thread

40:                                               ; preds = %39
  %41 = load ptr, ptr %6, align 8, !tbaa !136
  %42 = trunc i64 %.0 to i32
  %.neg = add i32 %42, 1
  %43 = getelementptr ptr, ptr %41, i64 %.0
  %44 = load ptr, ptr %43, align 8, !tbaa !146
  %45 = getelementptr inbounds nuw i8, ptr %44, i64 8
  %46 = load ptr, ptr %45, align 8, !tbaa !75
  %47 = call i32 @strcasecmp(ptr noundef %46, ptr noundef nonnull @.str.77) #20
  %48 = icmp eq i32 %47, 0
  %49 = icmp ne i32 %34, %.neg
  %or.cond = and i1 %49, %48
  br i1 %or.cond, label %51, label %.thread

.thread:                                          ; preds = %39, %40
  %50 = load ptr, ptr getelementptr inbounds nuw (i8, ptr @shared, i64 216), align 8, !tbaa !148
  call void @addReplyErrorObject(ptr noundef nonnull %0, ptr noundef %50) #18
  br label %.loopexit

51:                                               ; preds = %40
  %52 = getelementptr i8, ptr %43, i64 8
  %53 = load ptr, ptr %52, align 8, !tbaa !146
  %54 = call i32 @getRangeLongFromObjectOrReply(ptr noundef nonnull %0, ptr noundef %53, i64 noundef 1, i64 noundef 9223372036854775807, ptr noundef nonnull %5, ptr noundef nonnull @.str.78) #18
  %.not44 = icmp eq i32 %54, 0
  br i1 %.not44, label %33, label %.loopexit, !llvm.loop !227

55:                                               ; preds = %33
  br i1 %38, label %56, label %57

56:                                               ; preds = %55
  store i64 1, ptr %5, align 8, !tbaa !26
  br label %57

57:                                               ; preds = %56, %55
  %58 = phi i64 [ 1, %56 ], [ %37, %55 ]
  %.not43 = icmp eq i32 %2, 0
  %59 = load ptr, ptr %6, align 8, !tbaa !136
  %60 = getelementptr inbounds ptr, ptr %59, i64 %8
  %61 = getelementptr inbounds nuw i8, ptr %60, i64 8
  %62 = load i64, ptr %4, align 8, !tbaa !26
  %63 = trunc i64 %62 to i32
  br i1 %.not43, label %65, label %64

64:                                               ; preds = %57
  call void @blockingGenericZpopCommand(ptr noundef nonnull %0, ptr noundef nonnull %61, i32 noundef %63, i32 noundef %.037, i32 noundef 1, i64 noundef %58, i32 noundef 1, i32 noundef 1)
  br label %.loopexit

65:                                               ; preds = %57
  call void @genericZpopCommand(ptr noundef nonnull %0, ptr noundef nonnull %61, i32 noundef %63, i32 noundef %.037, i32 noundef 1, i64 noundef %58, i32 noundef 1, i32 noundef 1, ptr noundef null)
  br label %.loopexit

.loopexit:                                        ; preds = %51, %.thread, %19, %30, %65, %64, %3
  call void @llvm.lifetime.end.p0(i64 8, ptr nonnull %5) #18
  call void @llvm.lifetime.end.p0(i64 8, ptr nonnull %4) #18
  ret void
}